target datalayout = "e-m:e-p270:32:32-p271:32:32-p272:64:64-i64:64-i128:128-f80:128-n8:16:32:64-S128"
target triple = "x86_64-pc-linux-gnu"

; Function Attrs: nounwind uwtable
define internal ptr @_lookup_cwd() #0 {
  %1 = alloca ptr, align 8
  %2 = alloca [4096 x i8], align 16
  %3 = alloca i32, align 4
  call void @llvm.lifetime.start.p0(i64 4096, ptr %2) #10
  %4 = getelementptr inbounds [4096 x i8], ptr %2, i64 0, i64 0
  %5 = call ptr @getcwd(ptr noundef %4, i64 noundef 4096) #10
  %6 = icmp ne ptr %5, null
  br i1 %6, label %7, label %10

7:                                                ; preds = %0
  %8 = getelementptr inbounds [4096 x i8], ptr %2, i64 0, i64 0
  %9 = call ptr @xstrdup(ptr noundef %8)
  store ptr %9, ptr %1, align 8
  store i32 1, ptr %3, align 4
  br label %11

10:                                               ; preds = %0
  store ptr null, ptr %1, align 8
  store i32 1, ptr %3, align 4
  br label %11

11:                                               ; preds = %10, %7
  call void @llvm.lifetime.end.p0(i64 4096, ptr %2) #10
  %12 = load ptr, ptr %1, align 8
  ret ptr %12
}