; Function Attrs: nounwind uwtable
define internal fastcc ptr @_lookup_cwd() unnamed_addr #3 {
  %1 = alloca [4096 x i8], align 16
  call void @llvm.lifetime.start.p0(i64 4096, ptr nonnull %1) #14
  %2 = call ptr @getcwd(ptr noundef nonnull %1, i64 noundef 4096) #14
  %.not = icmp eq ptr %2, null
  br i1 %.not, label %5, label %3

3:                                                ; preds = %0
  %4 = call ptr @xstrdup(ptr noundef nonnull %1) #14
  br label %5

5:                                                ; preds = %0, %3
  %.0 = phi ptr [ %4, %3 ], [ null, %0 ]
  call void @llvm.lifetime.end.p0(i64 4096, ptr nonnull %1) #14
  ret ptr %.0
}